; Function Attrs: mustprogress uwtable
define internal noundef ptr @"_ZNSt17_Function_handlerIFP25dependent_expr_simplifierR11ast_managerRK10params_refR20dependent_expr_stateEZ15install_tacticsR14tactic_managerE3$_1E9_M_invokeERKSt9_Any_dataS3_S6_S8_"(ptr nonnull readnone align 8 captures(none) %0, ptr noundef nonnull align 8 dereferenceable(976) %1, ptr noundef nonnull align 8 dereferenceable(8) %2, ptr noundef nonnull align 8 dereferenceable(160) %3) #3 align 2 personality ptr @__gxx_personality_v0 {
  %5 = tail call noalias noundef ptr @_ZN6memory8allocateEm(i64 noundef 56)
  %6 = getelementptr inbounds nuw i8, ptr %5, i64 8
  store ptr %1, ptr %6, align 8, !tbaa !59
  %7 = getelementptr inbounds nuw i8, ptr %5, i64 16
  store ptr %3, ptr %7, align 8, !tbaa !304
  %8 = getelementptr inbounds nuw i8, ptr %5, i64 24
  %9 = getelementptr inbounds nuw i8, ptr %3, i64 104
  store ptr %9, ptr %8, align 8, !tbaa !270
  store ptr getelementptr inbounds nuw inrange(-16, 88) (i8, ptr @_ZTV22bit_blaster_simplifier, i64 16), ptr %5, align 8, !tbaa !22
  %10 = getelementptr inbounds nuw i8, ptr %5, i64 32
  tail call void @_ZN20bit_blaster_rewriterC1ER11ast_managerRK10params_ref(ptr noundef nonnull align 8 dereferenceable(8) %10, ptr noundef nonnull align 8 dereferenceable(976) %1, ptr noundef nonnull align 8 dereferenceable(8) %2)
  %11 = getelementptr inbounds nuw i8, ptr %5, i64 40
  store i32 0, ptr %11, align 8, !tbaa !382
  %12 = getelementptr inbounds nuw i8, ptr %5, i64 48
  store ptr null, ptr %12, align 8, !tbaa !19
  %13 = load ptr, ptr %5, align 8, !tbaa !22
  %14 = getelementptr inbounds nuw i8, ptr %13, i64 64
  %15 = load ptr, ptr %14, align 8
  invoke void %15(ptr noundef nonnull align 8 dereferenceable(56) %5, ptr noundef nonnull align 8 dereferenceable(8) %2)
          to label %"_ZSt10__invoke_rIP25dependent_expr_simplifierRZ15install_tacticsR14tactic_managerE3$_1JR11ast_managerRK10params_refR20dependent_expr_stateEENSt9enable_ifIX16is_invocable_r_vIT_T0_DpT1_EESE_E4typeEOSF_DpOSG_.exit" unwind label %16

16:                                               ; preds = %4
  %17 = landingpad { ptr, i32 }
          cleanup
  tail call void @_ZN10params_refD1Ev(ptr noundef nonnull align 8 dereferenceable(8) %12) #23
  tail call void @_ZN20bit_blaster_rewriterD1Ev(ptr noundef nonnull align 8 dereferenceable(8) %10) #23
  resume { ptr, i32 } %17

"_ZSt10__invoke_rIP25dependent_expr_simplifierRZ15install_tacticsR14tactic_managerE3$_1JR11ast_managerRK10params_refR20dependent_expr_stateEENSt9enable_ifIX16is_invocable_r_vIT_T0_DpT1_EESE_E4typeEOSF_DpOSG_.exit": ; preds = %4
  ret ptr %5
}